; Function Attrs: nounwind uwtable
define hidden noundef i32 @dom_node_next_sibling_read(ptr noundef %0, ptr noundef %1) local_unnamed_addr #0 {
  %3 = tail call ptr @dom_object_get_node(ptr noundef %0) #12
  %4 = icmp eq ptr %3, null
  br i1 %4, label %5, label %6

5:                                                ; preds = %2
  tail call void @php_dom_throw_error(i32 noundef 11, i32 noundef 1) #12
  br label %13

6:                                                ; preds = %2
  %7 = getelementptr inbounds i8, ptr %3, i64 48
  %8 = load ptr, ptr %7, align 8
  %.not = icmp eq ptr %8, null
  br i1 %.not, label %9, label %11

9:                                                ; preds = %6
  %10 = getelementptr inbounds i8, ptr %1, i64 8
  store i32 1, ptr %10, align 8
  br label %13

11:                                               ; preds = %6
  %12 = tail call zeroext i1 @php_dom_create_object(ptr noundef nonnull %8, ptr noundef %1, ptr noundef %0) #12
  br label %13

13:                                               ; preds = %11, %9, %5
  %.0 = phi i32 [ -1, %5 ], [ 0, %11 ], [ 0, %9 ]
  ret i32 %.0
}